; Function Attrs: nounwind uwtable
define hidden i32 @mbedtls_ssl_tls13_derive_application_secrets(i32 noundef %0, ptr noundef %1, ptr noundef readonly captures(none) %2, i64 noundef %3, ptr noundef %4) local_unnamed_addr #0 {
  %6 = alloca [64 x i8], align 16
  %7 = alloca [64 x i8], align 16
  %8 = alloca [64 x i8], align 16
  %trunc = trunc i32 %0 to i8
  %switch.tableidx = add i8 %trunc, -3
  %9 = icmp ult i8 %switch.tableidx, 16
  br i1 %9, label %switch.hole_check, label %10

10:                                               ; preds = %switch.hole_check, %5
  %11 = and i32 %0, 255
  %12 = icmp eq i32 %11, 19
  %13 = select i1 %12, i64 64, i64 0
  br label %15

switch.hole_check:                                ; preds = %5
  %switch.maskindex = zext nneg i8 %switch.tableidx to i16
  %switch.shifted = lshr i16 -6169, %switch.maskindex
  %switch.lobit = trunc i16 %switch.shifted to i1
  br i1 %switch.lobit, label %switch.lookup, label %10

switch.lookup:                                    ; preds = %switch.hole_check
  %14 = zext nneg i8 %switch.tableidx to i64
  %switch.gep = getelementptr inbounds nuw [16 x i64], ptr @switch.table.mbedtls_ssl_tls13_compute_application_transform.13, i64 0, i64 %14
  %switch.load = load i64, ptr %switch.gep, align 8
  br label %15

15:                                               ; preds = %switch.lookup, %10
  %16 = phi i64 [ %13, %10 ], [ %switch.load, %switch.lookup ]
  %17 = and i32 %0, 2130706432
  %18 = icmp eq i32 %17, 33554432
  br i1 %18, label %19, label %26

19:                                               ; preds = %15
  call void @llvm.lifetime.start.p0(i64 64, ptr nonnull %8) #8
  %20 = icmp ugt i64 %3, 64
  br i1 %20, label %mbedtls_ssl_tls13_derive_secret.exit.thread, label %mbedtls_ssl_tls13_derive_secret.exit

mbedtls_ssl_tls13_derive_secret.exit.thread:      ; preds = %19
  call void @llvm.lifetime.end.p0(i64 64, ptr nonnull %8) #8
  br label %26

mbedtls_ssl_tls13_derive_secret.exit:             ; preds = %19
  call void @llvm.memcpy.p0.p0.i64(ptr nonnull align 16 %8, ptr align 1 %2, i64 %3, i1 false)
  %21 = call i32 @mbedtls_ssl_tls13_hkdf_expand_label(i32 noundef %0, ptr noundef %1, i64 noundef %16, ptr noundef nonnull readonly getelementptr inbounds nuw (i8, ptr @mbedtls_ssl_tls13_labels, i64 54), i64 noundef 12, ptr noundef nonnull %8, i64 noundef %3, ptr noundef %4, i64 noundef %16)
  call void @llvm.lifetime.end.p0(i64 64, ptr nonnull %8) #8
  %.not = icmp eq i32 %21, 0
  br i1 %.not, label %mbedtls_ssl_tls13_derive_secret.exit58, label %26

mbedtls_ssl_tls13_derive_secret.exit58:           ; preds = %mbedtls_ssl_tls13_derive_secret.exit
  %22 = getelementptr inbounds nuw i8, ptr %4, i64 64
  call void @llvm.lifetime.start.p0(i64 64, ptr nonnull %7) #8
  call void @llvm.memcpy.p0.p0.i64(ptr nonnull align 16 %7, ptr align 1 %2, i64 %3, i1 false)
  %23 = call i32 @mbedtls_ssl_tls13_hkdf_expand_label(i32 noundef %0, ptr noundef %1, i64 noundef %16, ptr noundef nonnull readonly getelementptr inbounds nuw (i8, ptr @mbedtls_ssl_tls13_labels, i64 89), i64 noundef 12, ptr noundef nonnull %7, i64 noundef %3, ptr noundef nonnull %22, i64 noundef %16)
  call void @llvm.lifetime.end.p0(i64 64, ptr nonnull %7) #8
  %.not45 = icmp eq i32 %23, 0
  br i1 %.not45, label %mbedtls_ssl_tls13_derive_secret.exit60, label %26

mbedtls_ssl_tls13_derive_secret.exit60:           ; preds = %mbedtls_ssl_tls13_derive_secret.exit58
  %24 = getelementptr inbounds nuw i8, ptr %4, i64 128
  call void @llvm.lifetime.start.p0(i64 64, ptr nonnull %6) #8
  call void @llvm.memcpy.p0.p0.i64(ptr nonnull align 16 %6, ptr align 1 %2, i64 %3, i1 false)
  %25 = call i32 @mbedtls_ssl_tls13_hkdf_expand_label(i32 noundef %0, ptr noundef %1, i64 noundef %16, ptr noundef nonnull readonly getelementptr inbounds nuw (i8, ptr @mbedtls_ssl_tls13_labels, i64 134), i64 noundef 10, ptr noundef nonnull %6, i64 noundef %3, ptr noundef nonnull %24, i64 noundef %16)
  call void @llvm.lifetime.end.p0(i64 64, ptr nonnull %6) #8
  br label %26

26:                                               ; preds = %mbedtls_ssl_tls13_derive_secret.exit.thread, %mbedtls_ssl_tls13_derive_secret.exit60, %mbedtls_ssl_tls13_derive_secret.exit58, %mbedtls_ssl_tls13_derive_secret.exit, %15
  %.0 = phi i32 [ -27648, %15 ], [ %21, %mbedtls_ssl_tls13_derive_secret.exit ], [ %23, %mbedtls_ssl_tls13_derive_secret.exit58 ], [ %25, %mbedtls_ssl_tls13_derive_secret.exit60 ], [ -27648, %mbedtls_ssl_tls13_derive_secret.exit.thread ]
  ret i32 %.0
}